; Function Attrs: mustprogress uwtable
define hidden void @_ZN13defined_names4impl10bound_varsERK10ref_bufferI4sort11ast_managerLj16EERK6bufferI6symbolLb1ELj16EEP4exprP3appRS1_ISC_S3_Lj16EERKS8_(ptr noundef nonnull readonly align 8 captures(none) dereferenceable(128) %0, ptr noundef nonnull readonly align 8 captures(none) dereferenceable(152) %1, ptr noundef nonnull readonly align 8 captures(none) dereferenceable(144) %2, ptr noundef %3, ptr noundef %4, ptr noundef nonnull align 8 captures(address) dereferenceable(152) %5, ptr noundef nonnull align 8 dereferenceable(8) %6) local_unnamed_addr #3 align 2 personality ptr @__gxx_personality_v0 {
  %8 = alloca %class.obj_ref, align 8
  call void @llvm.lifetime.start.p0(i64 16, ptr nonnull %8) #19
  %9 = getelementptr inbounds nuw i8, ptr %0, i64 8
  %10 = load ptr, ptr %9, align 8, !tbaa !74
  store ptr null, ptr %8, align 8, !tbaa !159
  %11 = getelementptr inbounds nuw i8, ptr %8, i64 8
  store ptr %10, ptr %11, align 8, !tbaa !6
  invoke void @_ZN13defined_names4impl10bound_varsERK10ref_bufferI4sort11ast_managerLj16EERK6bufferI6symbolLb1ELj16EEP4exprP3appR7obj_refISC_S3_ERKS8_(ptr noundef nonnull align 8 dereferenceable(128) %0, ptr noundef nonnull align 8 dereferenceable(152) %1, ptr noundef nonnull align 8 dereferenceable(144) %2, ptr noundef %3, ptr noundef %4, ptr noundef nonnull align 8 dereferenceable(16) %8, ptr noundef nonnull align 8 dereferenceable(8) %6)
          to label %12 unwind label %52

12:                                               ; preds = %7
  %13 = load ptr, ptr %8, align 8, !tbaa !159
  %.not.i.i.i.i = icmp eq ptr %13, null
  br i1 %.not.i.i.i.i, label %_ZN15ref_buffer_coreI4expr19ref_manager_wrapperIS0_11ast_managerELj16EE7inc_refEPS0_.exit.i, label %14

14:                                               ; preds = %12
  %15 = getelementptr inbounds nuw i8, ptr %13, i64 8
  %16 = load i32, ptr %15, align 4, !tbaa !35
  %17 = add i32 %16, 1
  store i32 %17, ptr %15, align 4, !tbaa !35
  br label %_ZN15ref_buffer_coreI4expr19ref_manager_wrapperIS0_11ast_managerELj16EE7inc_refEPS0_.exit.i

_ZN15ref_buffer_coreI4expr19ref_manager_wrapperIS0_11ast_managerELj16EE7inc_refEPS0_.exit.i: ; preds = %14, %12
  %18 = getelementptr inbounds nuw i8, ptr %5, i64 8
  %19 = getelementptr inbounds nuw i8, ptr %5, i64 16
  %20 = load i32, ptr %19, align 8, !tbaa !65
  %21 = getelementptr inbounds nuw i8, ptr %5, i64 20
  %22 = load i32, ptr %21, align 4, !tbaa !66
  %.not.i.i = icmp ult i32 %20, %22
  br i1 %.not.i.i, label %._crit_edge.i.i, label %23

._crit_edge.i.i:                                  ; preds = %_ZN15ref_buffer_coreI4expr19ref_manager_wrapperIS0_11ast_managerELj16EE7inc_refEPS0_.exit.i
  %.pre.i.i = load ptr, ptr %18, align 8, !tbaa !63
  br label %36

23:                                               ; preds = %_ZN15ref_buffer_coreI4expr19ref_manager_wrapperIS0_11ast_managerELj16EE7inc_refEPS0_.exit.i
  %24 = shl i32 %22, 1
  %25 = zext i32 %24 to i64
  %26 = shl nuw nsw i64 %25, 3
  %27 = invoke noalias noundef ptr @_ZN6memory8allocateEm(i64 noundef %26)
          to label %.noexc unwind label %52

.noexc:                                           ; preds = %23
  %28 = load i32, ptr %19, align 8, !tbaa !65
  %.not.i.i.i = icmp eq i32 %28, 0
  %.pre.i.i.i = load ptr, ptr %18, align 8, !tbaa !63
  br i1 %.not.i.i.i, label %._crit_edge.i.i.i, label %.lr.ph.i.i.i

.lr.ph.i.i.i:                                     ; preds = %.noexc
  %wide.trip.count.i.i.i = zext i32 %28 to i64
  br label %32

._crit_edge.i.i.i:                                ; preds = %32, %.noexc
  %29 = getelementptr inbounds nuw i8, ptr %5, i64 24
  %.not.i.i.i1.i = icmp eq ptr %.pre.i.i.i, %29
  %30 = icmp eq ptr %.pre.i.i.i, null
  %or.cond.i.i.i.i = or i1 %.not.i.i.i1.i, %30
  br i1 %or.cond.i.i.i.i, label %_ZN6bufferIP4exprLb0ELj16EE6expandEv.exit.i.i, label %31

31:                                               ; preds = %._crit_edge.i.i.i
  invoke void @_ZN6memory10deallocateEPv(ptr noundef nonnull %.pre.i.i.i)
          to label %.noexc8 unwind label %52

.noexc8:                                          ; preds = %31
  %.pre2.pre.i.i = load i32, ptr %19, align 8, !tbaa !65
  br label %_ZN6bufferIP4exprLb0ELj16EE6expandEv.exit.i.i

32:                                               ; preds = %32, %.lr.ph.i.i.i
  %indvars.iv.i.i.i = phi i64 [ 0, %.lr.ph.i.i.i ], [ %indvars.iv.next.i.i.i, %32 ]
  %33 = getelementptr inbounds nuw ptr, ptr %27, i64 %indvars.iv.i.i.i
  %34 = getelementptr inbounds nuw ptr, ptr %.pre.i.i.i, i64 %indvars.iv.i.i.i
  %35 = load ptr, ptr %34, align 8, !tbaa !39
  store ptr %35, ptr %33, align 8, !tbaa !39
  %indvars.iv.next.i.i.i = add nuw nsw i64 %indvars.iv.i.i.i, 1
  %exitcond.not.i.i.i = icmp eq i64 %indvars.iv.next.i.i.i, %wide.trip.count.i.i.i
  br i1 %exitcond.not.i.i.i, label %._crit_edge.i.i.i, label %32, !llvm.loop !84

_ZN6bufferIP4exprLb0ELj16EE6expandEv.exit.i.i:    ; preds = %.noexc8, %._crit_edge.i.i.i
  %.pre2.i.i = phi i32 [ %28, %._crit_edge.i.i.i ], [ %.pre2.pre.i.i, %.noexc8 ]
  store ptr %27, ptr %18, align 8, !tbaa !63
  store i32 %24, ptr %21, align 4, !tbaa !66
  br label %36

36:                                               ; preds = %_ZN6bufferIP4exprLb0ELj16EE6expandEv.exit.i.i, %._crit_edge.i.i
  %37 = phi i32 [ %20, %._crit_edge.i.i ], [ %.pre2.i.i, %_ZN6bufferIP4exprLb0ELj16EE6expandEv.exit.i.i ]
  %38 = phi ptr [ %.pre.i.i, %._crit_edge.i.i ], [ %27, %_ZN6bufferIP4exprLb0ELj16EE6expandEv.exit.i.i ]
  %39 = zext i32 %37 to i64
  %40 = getelementptr inbounds nuw ptr, ptr %38, i64 %39
  store ptr %13, ptr %40, align 8, !tbaa !39
  %41 = add i32 %37, 1
  store i32 %41, ptr %19, align 8, !tbaa !65
  br i1 %.not.i.i.i.i, label %_ZN7obj_refI4expr11ast_managerED2Ev.exit, label %42

42:                                               ; preds = %36
  %43 = load ptr, ptr %11, align 8, !tbaa !161
  %44 = getelementptr inbounds nuw i8, ptr %13, i64 8
  %45 = load i32, ptr %44, align 4, !tbaa !35
  %46 = add i32 %45, -1
  store i32 %46, ptr %44, align 4, !tbaa !35
  %47 = icmp eq i32 %46, 0
  br i1 %47, label %48, label %_ZN7obj_refI4expr11ast_managerED2Ev.exit

48:                                               ; preds = %42
  invoke void @_ZN11ast_manager11delete_nodeEP3ast(ptr noundef nonnull align 8 dereferenceable(976) %43, ptr noundef nonnull %13)
          to label %_ZN7obj_refI4expr11ast_managerED2Ev.exit unwind label %49

49:                                               ; preds = %48
  %50 = landingpad { ptr, i32 }
          catch ptr null
  %51 = extractvalue { ptr, i32 } %50, 0
  tail call void @__clang_call_terminate(ptr %51) #20
  unreachable

_ZN7obj_refI4expr11ast_managerED2Ev.exit:         ; preds = %36, %42, %48
  call void @llvm.lifetime.end.p0(i64 16, ptr nonnull %8) #19
  ret void

52:                                               ; preds = %31, %23, %7
  %53 = landingpad { ptr, i32 }
          cleanup
  call void @_ZN7obj_refI4expr11ast_managerED2Ev(ptr noundef nonnull align 8 dereferenceable(16) %8) #19
  call void @llvm.lifetime.end.p0(i64 16, ptr nonnull %8) #19
  resume { ptr, i32 } %53
}